target datalayout = "e-m:e-p270:32:32-p271:32:32-p272:64:64-i64:64-i128:128-f80:128-n8:16:32:64-S128"
target triple = "x86_64-pc-linux-gnu"

%struct.SparseMatrix_struct = type { i32, i32, i32, i32, i32, ptr, ptr, ptr, i32, i8, i64 }

; Function Attrs: nounwind uwtable
define ptr @SparseMatrix_from_coordinate_arrays(i32 noundef %0, i32 noundef %1, i32 noundef %2, ptr noundef %3, ptr noundef %4, ptr noundef %5, i32 noundef %6, i64 noundef %7) #0 {
  %9 = alloca i32, align 4
  %10 = alloca i32, align 4
  %11 = alloca i32, align 4
  %12 = alloca ptr, align 8
  %13 = alloca ptr, align 8
  %14 = alloca ptr, align 8
  %15 = alloca i32, align 4
  %16 = alloca i64, align 8
  store i32 %0, ptr %9, align 4, !tbaa !17
  store i32 %1, ptr %10, align 4, !tbaa !17
  store i32 %2, ptr %11, align 4, !tbaa !17
  store ptr %3, ptr %12, align 8, !tbaa !14
  store ptr %4, ptr %13, align 8, !tbaa !14
  store ptr %5, ptr %14, align 8, !tbaa !87
  store i32 %6, ptr %15, align 4, !tbaa !17
  store i64 %7, ptr %16, align 8, !tbaa !52
  %17 = load i32, ptr %9, align 4, !tbaa !17
  %18 = load i32, ptr %10, align 4, !tbaa !17
  %19 = load i32, ptr %11, align 4, !tbaa !17
  %20 = load ptr, ptr %12, align 8, !tbaa !14
  %21 = load ptr, ptr %13, align 8, !tbaa !14
  %22 = load ptr, ptr %14, align 8, !tbaa !87
  %23 = load i32, ptr %15, align 4, !tbaa !17
  %24 = load i64, ptr %16, align 8, !tbaa !52
  %25 = call ptr @SparseMatrix_from_coordinate_arrays_internal(i32 noundef %17, i32 noundef %18, i32 noundef %19, ptr noundef %20, ptr noundef %21, ptr noundef %22, i32 noundef %23, i64 noundef %24, i32 noundef 1)
  ret ptr %25
}

; Function Attrs: nounwind uwtable
define ptr @SparseMatrix_from_coordinate_format(ptr noundef %0) #0 {
  %2 = alloca ptr, align 8
  %3 = alloca ptr, align 8
  %4 = alloca ptr, align 8
  %5 = alloca ptr, align 8
  %6 = alloca ptr, align 8
  %7 = alloca i32, align 4
  store ptr %0, ptr %3, align 8, !tbaa !3
  call void @llvm.lifetime.start.p0(i64 8, ptr %4) #11
  call void @llvm.lifetime.start.p0(i64 8, ptr %5) #11
  call void @llvm.lifetime.start.p0(i64 8, ptr %6) #11
  %8 = load ptr, ptr %3, align 8, !tbaa !3
  %9 = getelementptr inbounds nuw %struct.SparseMatrix_struct, ptr %8, i32 0, i32 7
  %10 = load ptr, ptr %9, align 8, !tbaa !27
  store ptr %10, ptr %6, align 8, !tbaa !87
  %11 = load ptr, ptr %3, align 8, !tbaa !3
  %12 = getelementptr inbounds nuw %struct.SparseMatrix_struct, ptr %11, i32 0, i32 8
  %13 = load i32, ptr %12, align 8, !tbaa !21
  %14 = icmp ne i32 %13, 1
  br i1 %14, label %15, label %16

15:                                               ; preds = %1
  store ptr null, ptr %2, align 8
  store i32 1, ptr %7, align 4
  br label %42

16:                                               ; preds = %1
  %17 = load ptr, ptr %3, align 8, !tbaa !3
  %18 = getelementptr inbounds nuw %struct.SparseMatrix_struct, ptr %17, i32 0, i32 5
  %19 = load ptr, ptr %18, align 8, !tbaa !8
  store ptr %19, ptr %4, align 8, !tbaa !14
  %20 = load ptr, ptr %3, align 8, !tbaa !3
  %21 = getelementptr inbounds nuw %struct.SparseMatrix_struct, ptr %20, i32 0, i32 6
  %22 = load ptr, ptr %21, align 8, !tbaa !15
  store ptr %22, ptr %5, align 8, !tbaa !14
  %23 = load ptr, ptr %3, align 8, !tbaa !3
  %24 = getelementptr inbounds nuw %struct.SparseMatrix_struct, ptr %23, i32 0, i32 2
  %25 = load i32, ptr %24, align 8, !tbaa !16
  %26 = load ptr, ptr %3, align 8, !tbaa !3
  %27 = getelementptr inbounds nuw %struct.SparseMatrix_struct, ptr %26, i32 0, i32 0
  %28 = load i32, ptr %27, align 8, !tbaa !18
  %29 = load ptr, ptr %3, align 8, !tbaa !3
  %30 = getelementptr inbounds nuw %struct.SparseMatrix_struct, ptr %29, i32 0, i32 1
  %31 = load i32, ptr %30, align 4, !tbaa !19
  %32 = load ptr, ptr %4, align 8, !tbaa !14
  %33 = load ptr, ptr %5, align 8, !tbaa !14
  %34 = load ptr, ptr %6, align 8, !tbaa !87
  %35 = load ptr, ptr %3, align 8, !tbaa !3
  %36 = getelementptr inbounds nuw %struct.SparseMatrix_struct, ptr %35, i32 0, i32 4
  %37 = load i32, ptr %36, align 8, !tbaa !20
  %38 = load ptr, ptr %3, align 8, !tbaa !3
  %39 = getelementptr inbounds nuw %struct.SparseMatrix_struct, ptr %38, i32 0, i32 10
  %40 = load i64, ptr %39, align 8, !tbaa !71
  %41 = call ptr @SparseMatrix_from_coordinate_arrays(i32 noundef %25, i32 noundef %28, i32 noundef %31, ptr noundef %32, ptr noundef %33, ptr noundef %34, i32 noundef %37, i64 noundef %40)
  store ptr %41, ptr %2, align 8
  store i32 1, ptr %7, align 4
  br label %42

42:                                               ; preds = %16, %15
  call void @llvm.lifetime.end.p0(i64 8, ptr %6) #11
  call void @llvm.lifetime.end.p0(i64 8, ptr %5) #11
  call void @llvm.lifetime.end.p0(i64 8, ptr %4) #11
  %43 = load ptr, ptr %2, align 8
  ret ptr %43
}